; ModuleID = '54/884.c'
source_filename = "54/884.c"
target datalayout = "e-m:e-p270:32:32-p271:32:32-p272:64:64-i64:64-f80:128-n8:16:32:64-S128"
target triple = "x86_64-pc-linux-gnu"

@.str = private unnamed_addr constant [6 x i8] c"%d %d\00", align 1
@.str.1 = private unnamed_addr constant [4 x i8] c"%d\0A\00", align 1

; Function Attrs: noinline nounwind uwtable
define dso_local void @main() #0 {
  %1 = alloca i32, align 4
  %2 = alloca i32, align 4
  %3 = alloca i32, align 4
  %4 = call i32 (i8*, ...) @__isoc99_scanf(i8* getelementptr inbounds ([6 x i8], [6 x i8]* @.str, i64 0, i64 0), i32* %1, i32* %2)
  %5 = load i32, i32* %1, align 4
  store i32 %5, i32* %3, align 4
  %6 = load i32, i32* %1, align 4
  %7 = add nsw i32 %6, 1
  %8 = load i32, i32* %2, align 4
  %9 = load i32, i32* %3, align 4
  %10 = call i32 @sum(i32 %7, i32 %8, i32 %9)
  %11 = call i32 (i8*, ...) @printf(i8* getelementptr inbounds ([4 x i8], [4 x i8]* @.str.1, i64 0, i64 0), i32 %10)
  ret void
}

declare dso_local i32 @__isoc99_scanf(i8*, ...) #1

declare dso_local i32 @printf(i8*, ...) #1

; Function Attrs: noinline nounwind uwtable
define dso_local i32 @sum(i32 %0, i32 %1, i32 %2) #0 {
  %4 = alloca i32, align 4
  %5 = alloca i32, align 4
  %6 = alloca i32, align 4
  %7 = alloca i32, align 4
  %8 = alloca i32, align 4
  store i32 %0, i32* %4, align 4
  store i32 %1, i32* %5, align 4
  store i32 %2, i32* %6, align 4
  %9 = load i32, i32* %4, align 4
  %10 = icmp eq i32 %9, 1
  br i1 %10, label %11, label %35

11:                                               ; preds = %3
  store i32 1, i32* %7, align 4
  %12 = load i32, i32* %6, align 4
  %13 = icmp ne i32 %12, 2
  br i1 %13, label %14, label %34

14:                                               ; preds = %11
  store i32 1, i32* %8, align 4
  br label %15

15:                                               ; preds = %24, %14
  %16 = load i32, i32* %8, align 4
  %17 = load i32, i32* %6, align 4
  %18 = icmp sle i32 %16, %17
  br i1 %18, label %19, label %27

19:                                               ; preds = %15
  %20 = load i32, i32* %7, align 4
  %21 = load i32, i32* %6, align 4
  %22 = sub nsw i32 %21, 1
  %23 = mul nsw i32 %20, %22
  store i32 %23, i32* %7, align 4
  br label %24

24:                                               ; preds = %19
  %25 = load i32, i32* %8, align 4
  %26 = add nsw i32 %25, 1
  store i32 %26, i32* %8, align 4
  br label %15

27:                                               ; preds = %15
  %28 = load i32, i32* %7, align 4
  %29 = load i32, i32* %5, align 4
  %30 = load i32, i32* %6, align 4
  %31 = sub nsw i32 %30, 1
  %32 = mul nsw i32 %29, %31
  %33 = sub nsw i32 %28, %32
  store i32 %33, i32* %7, align 4
  br label %34

34:                                               ; preds = %27, %11
  br label %48

35:                                               ; preds = %3
  %36 = load i32, i32* %4, align 4
  %37 = sub nsw i32 %36, 1
  %38 = load i32, i32* %5, align 4
  %39 = load i32, i32* %6, align 4
  %40 = call i32 @sum(i32 %37, i32 %38, i32 %39)
  %41 = load i32, i32* %6, align 4
  %42 = mul nsw i32 %40, %41
  %43 = load i32, i32* %6, align 4
  %44 = sub nsw i32 %43, 1
  %45 = sdiv i32 %42, %44
  %46 = load i32, i32* %5, align 4
  %47 = add nsw i32 %45, %46
  store i32 %47, i32* %7, align 4
  br label %48

48:                                               ; preds = %35, %34
  %49 = load i32, i32* %7, align 4
  ret i32 %49
}


!llvm.module.flags = !{!0}
!llvm.ident = !{!1}

!0 = !{i32 1, !"wchar_size", i32 4}
!1 = !{!"clang version 10.0.0-4ubuntu1 "}
